target datalayout = "e-m:e-p270:32:32-p271:32:32-p272:64:64-i64:64-f80:128-n8:16:32:64-S128"
target triple = "x86_64-pc-linux-gnu"

@.str = private unnamed_addr constant [3 x i8] c"%d\00", align 1
@.str.1 = private unnamed_addr constant [3 x i8] c"%s\00", align 1
@.str.2 = private unnamed_addr constant [4 x i8] c"%d\0A\00", align 1
@.str.3 = private unnamed_addr constant [4 x i8] c"%s\0A\00", align 1
@.str.4 = private unnamed_addr constant [4 x i8] c"NO\0A\00", align 1

; Function Attrs: noinline nounwind uwtable
define dso_local i32 @main() #0 {
  %1 = alloca i32, align 4
  %2 = alloca [500 x i8], align 16
  %3 = alloca [500 x [500 x i8]], align 16
  %4 = alloca [500 x i32], align 16
  %5 = alloca i32, align 4
  %6 = alloca [500 x [3 x i32]], align 16
  %7 = alloca i32, align 4
  %8 = alloca i32, align 4
  %9 = alloca i32, align 4
  %10 = alloca i32, align 4
  %11 = alloca i32, align 4
  store i32 0, i32* %1, align 4
  %12 = bitcast [500 x i8]* %2 to i8*
  call void @llvm.memset.p0i8.i64(i8* align 16 %12, i8 0, i64 500, i1 false)
  %13 = bitcast [500 x [500 x i8]]* %3 to i8*
  call void @llvm.memset.p0i8.i64(i8* align 16 %13, i8 0, i64 250000, i1 false)
  %14 = bitcast [500 x i32]* %4 to i8*
  call void @llvm.memset.p0i8.i64(i8* align 16 %14, i8 0, i64 2000, i1 false)
  store i32 0, i32* %5, align 4
  %15 = bitcast [500 x [3 x i32]]* %6 to i8*
  call void @llvm.memset.p0i8.i64(i8* align 16 %15, i8 0, i64 6000, i1 false)
  store i32 0, i32* %11, align 4
  %16 = call i32 (i8*, ...) @__isoc99_scanf(i8* getelementptr inbounds ([3 x i8], [3 x i8]* @.str, i64 0, i64 0), i32* %9)
  %17 = getelementptr inbounds [500 x i8], [500 x i8]* %2, i64 0, i64 0
  %18 = call i32 (i8*, ...) @__isoc99_scanf(i8* getelementptr inbounds ([3 x i8], [3 x i8]* @.str.1, i64 0, i64 0), i8* %17)
  %19 = getelementptr inbounds [500 x i8], [500 x i8]* %2, i64 0, i64 0
  %20 = call i64 @strlen(i8* %19) #5
  %21 = trunc i64 %20 to i32
  store i32 %21, i32* %10, align 4
  store i32 0, i32* %7, align 4
  br label %22

22:                                               ; preds = %51, %0
  %23 = load i32, i32* %7, align 4
  %24 = load i32, i32* %10, align 4
  %25 = load i32, i32* %9, align 4
  %26 = sub nsw i32 %24, %25
  %27 = add nsw i32 %26, 1
  %28 = icmp slt i32 %23, %27
  br i1 %28, label %29, label %54

29:                                               ; preds = %22
  store i32 0, i32* %8, align 4
  br label %30

30:                                               ; preds = %47, %29
  %31 = load i32, i32* %8, align 4
  %32 = load i32, i32* %9, align 4
  %33 = icmp slt i32 %31, %32
  br i1 %33, label %34, label %50

34:                                               ; preds = %30
  %35 = load i32, i32* %7, align 4
  %36 = load i32, i32* %8, align 4
  %37 = add nsw i32 %35, %36
  %38 = sext i32 %37 to i64
  %39 = getelementptr inbounds [500 x i8], [500 x i8]* %2, i64 0, i64 %38
  %40 = load i8, i8* %39, align 1
  %41 = load i32, i32* %7, align 4
  %42 = sext i32 %41 to i64
  %43 = getelementptr inbounds [500 x [500 x i8]], [500 x [500 x i8]]* %3, i64 0, i64 %42
  %44 = load i32, i32* %8, align 4
  %45 = sext i32 %44 to i64
  %46 = getelementptr inbounds [500 x i8], [500 x i8]* %43, i64 0, i64 %45
  store i8 %40, i8* %46, align 1
  br label %47

47:                                               ; preds = %34
  %48 = load i32, i32* %8, align 4
  %49 = add nsw i32 %48, 1
  store i32 %49, i32* %8, align 4
  br label %30

50:                                               ; preds = %30
  br label %51

51:                                               ; preds = %50
  %52 = load i32, i32* %7, align 4
  %53 = add nsw i32 %52, 1
  store i32 %53, i32* %7, align 4
  br label %22

54:                                               ; preds = %22
  store i32 0, i32* %7, align 4
  br label %55

55:                                               ; preds = %92, %54
  %56 = load i32, i32* %7, align 4
  %57 = load i32, i32* %10, align 4
  %58 = load i32, i32* %9, align 4
  %59 = sub nsw i32 %57, %58
  %60 = add nsw i32 %59, 1
  %61 = icmp slt i32 %56, %60
  br i1 %61, label %62, label %95

62:                                               ; preds = %55
  store i32 0, i32* %8, align 4
  br label %63

63:                                               ; preds = %88, %62
  %64 = load i32, i32* %8, align 4
  %65 = load i32, i32* %10, align 4
  %66 = load i32, i32* %9, align 4
  %67 = sub nsw i32 %65, %66
  %68 = add nsw i32 %67, 1
  %69 = icmp slt i32 %64, %68
  br i1 %69, label %70, label %91

70:                                               ; preds = %63
  %71 = load i32, i32* %7, align 4
  %72 = sext i32 %71 to i64
  %73 = getelementptr inbounds [500 x [500 x i8]], [500 x [500 x i8]]* %3, i64 0, i64 %72
  %74 = getelementptr inbounds [500 x i8], [500 x i8]* %73, i64 0, i64 0
  %75 = load i32, i32* %8, align 4
  %76 = sext i32 %75 to i64
  %77 = getelementptr inbounds [500 x [500 x i8]], [500 x [500 x i8]]* %3, i64 0, i64 %76
  %78 = getelementptr inbounds [500 x i8], [500 x i8]* %77, i64 0, i64 0
  %79 = call i32 @strcmp(i8* %74, i8* %78) #5
  %80 = icmp eq i32 %79, 0
  br i1 %80, label %81, label %87

81:                                               ; preds = %70
  %82 = load i32, i32* %7, align 4
  %83 = sext i32 %82 to i64
  %84 = getelementptr inbounds [500 x i32], [500 x i32]* %4, i64 0, i64 %83
  %85 = load i32, i32* %84, align 4
  %86 = add nsw i32 %85, 1
  store i32 %86, i32* %84, align 4
  br label %87

87:                                               ; preds = %81, %70
  br label %88

88:                                               ; preds = %87
  %89 = load i32, i32* %8, align 4
  %90 = add nsw i32 %89, 1
  store i32 %90, i32* %8, align 4
  br label %63

91:                                               ; preds = %63
  br label %92

92:                                               ; preds = %91
  %93 = load i32, i32* %7, align 4
  %94 = add nsw i32 %93, 1
  store i32 %94, i32* %7, align 4
  br label %55

95:                                               ; preds = %55
  store i32 0, i32* %7, align 4
  br label %96

96:                                               ; preds = %116, %95
  %97 = load i32, i32* %7, align 4
  %98 = load i32, i32* %10, align 4
  %99 = load i32, i32* %9, align 4
  %100 = sub nsw i32 %98, %99
  %101 = add nsw i32 %100, 1
  %102 = icmp slt i32 %97, %101
  br i1 %102, label %103, label %119

103:                                              ; preds = %96
  %104 = load i32, i32* %7, align 4
  %105 = sext i32 %104 to i64
  %106 = getelementptr inbounds [500 x i32], [500 x i32]* %4, i64 0, i64 %105
  %107 = load i32, i32* %106, align 4
  %108 = load i32, i32* %11, align 4
  %109 = icmp sgt i32 %107, %108
  br i1 %109, label %110, label %115

110:                                              ; preds = %103
  %111 = load i32, i32* %7, align 4
  %112 = sext i32 %111 to i64
  %113 = getelementptr inbounds [500 x i32], [500 x i32]* %4, i64 0, i64 %112
  %114 = load i32, i32* %113, align 4
  store i32 %114, i32* %11, align 4
  br label %115

115:                                              ; preds = %110, %103
  br label %116

116:                                              ; preds = %115
  %117 = load i32, i32* %7, align 4
  %118 = add nsw i32 %117, 1
  store i32 %118, i32* %7, align 4
  br label %96

119:                                              ; preds = %96
  %120 = load i32, i32* %11, align 4
  %121 = icmp sgt i32 %120, 1
  br i1 %121, label %122, label %188

122:                                              ; preds = %119
  %123 = load i32, i32* %11, align 4
  %124 = call i32 (i8*, ...) @printf(i8* getelementptr inbounds ([4 x i8], [4 x i8]* @.str.2, i64 0, i64 0), i32 %123)
  store i32 0, i32* %7, align 4
  br label %125

125:                                              ; preds = %184, %122
  %126 = load i32, i32* %7, align 4
  %127 = load i32, i32* %10, align 4
  %128 = load i32, i32* %9, align 4
  %129 = sub nsw i32 %127, %128
  %130 = add nsw i32 %129, 1
  %131 = icmp slt i32 %126, %130
  br i1 %131, label %132, label %187

132:                                              ; preds = %125
  %133 = load i32, i32* %7, align 4
  %134 = sext i32 %133 to i64
  %135 = getelementptr inbounds [500 x i32], [500 x i32]* %4, i64 0, i64 %134
  %136 = load i32, i32* %135, align 4
  %137 = load i32, i32* %11, align 4
  %138 = icmp eq i32 %136, %137
  br i1 %138, label %139, label %183

139:                                              ; preds = %132
  %140 = load i32, i32* %7, align 4
  %141 = sext i32 %140 to i64
  %142 = getelementptr inbounds [500 x [3 x i32]], [500 x [3 x i32]]* %6, i64 0, i64 %141
  %143 = getelementptr inbounds [3 x i32], [3 x i32]* %142, i64 0, i64 0
  %144 = bitcast i32* %143 to i8*
  %145 = load i32, i32* %7, align 4
  %146 = sext i32 %145 to i64
  %147 = getelementptr inbounds [500 x [500 x i8]], [500 x [500 x i8]]* %3, i64 0, i64 %146
  %148 = getelementptr inbounds [500 x i8], [500 x i8]* %147, i64 0, i64 0
  %149 = call i8* @strcpy(i8* %144, i8* %148) #6
  store i32 0, i32* %8, align 4
  br label %150

150:                                              ; preds = %170, %139
  %151 = load i32, i32* %8, align 4
  %152 = load i32, i32* %7, align 4
  %153 = icmp slt i32 %151, %152
  br i1 %153, label %154, label %173

154:                                              ; preds = %150
  %155 = load i32, i32* %8, align 4
  %156 = sext i32 %155 to i64
  %157 = getelementptr inbounds [500 x [3 x i32]], [500 x [3 x i32]]* %6, i64 0, i64 %156
  %158 = getelementptr inbounds [3 x i32], [3 x i32]* %157, i64 0, i64 0
  %159 = bitcast i32* %158 to i8*
  %160 = load i32, i32* %7, align 4
  %161 = sext i32 %160 to i64
  %162 = getelementptr inbounds [500 x [500 x i8]], [500 x [500 x i8]]* %3, i64 0, i64 %161
  %163 = getelementptr inbounds [500 x i8], [500 x i8]* %162, i64 0, i64 0
  %164 = call i32 @strcmp(i8* %159, i8* %163) #5
  %165 = icmp eq i32 %164, 0
  br i1 %165, label %166, label %169

166:                                              ; preds = %154
  %167 = load i32, i32* %5, align 4
  %168 = add nsw i32 %167, 1
  store i32 %168, i32* %5, align 4
  br label %169

169:                                              ; preds = %166, %154
  br label %170

170:                                              ; preds = %169
  %171 = load i32, i32* %8, align 4
  %172 = add nsw i32 %171, 1
  store i32 %172, i32* %8, align 4
  br label %150

173:                                              ; preds = %150
  %174 = load i32, i32* %5, align 4
  %175 = icmp eq i32 %174, 0
  br i1 %175, label %176, label %182

176:                                              ; preds = %173
  %177 = load i32, i32* %7, align 4
  %178 = sext i32 %177 to i64
  %179 = getelementptr inbounds [500 x [500 x i8]], [500 x [500 x i8]]* %3, i64 0, i64 %178
  %180 = getelementptr inbounds [500 x i8], [500 x i8]* %179, i64 0, i64 0
  %181 = call i32 (i8*, ...) @printf(i8* getelementptr inbounds ([4 x i8], [4 x i8]* @.str.3, i64 0, i64 0), i8* %180)
  br label %182

182:                                              ; preds = %176, %173
  br label %183

183:                                              ; preds = %182, %132
  store i32 0, i32* %5, align 4
  br label %184

184:                                              ; preds = %183
  %185 = load i32, i32* %7, align 4
  %186 = add nsw i32 %185, 1
  store i32 %186, i32* %7, align 4
  br label %125

187:                                              ; preds = %125
  br label %190

188:                                              ; preds = %119
  %189 = call i32 (i8*, ...) @printf(i8* getelementptr inbounds ([4 x i8], [4 x i8]* @.str.4, i64 0, i64 0))
  br label %190

190:                                              ; preds = %188, %187
  ret i32 0
}